Certificate:
    Data:
        Version: 3 (0x2)
        Serial Number: 2 (0x2)
    Signature Algorithm: sha256WithRSAEncryption
        Issuer: C=cn, ST=js, L=zj, O=ujs, OU=jsj, CN=CA/emailAddress=123456
        Validity
            Not Before: May 17 09:14:57 2018 GMT
            Not After : May 17 09:14:57 2019 GMT
        Subject: C=cn, ST=js, O=ujs, OU=jsj, CN=qc/emailAddress=123456
        Subject Public Key Info:
            Public Key Algorithm: rsaEncryption
                Public-Key: (1024 bit)
                Modulus:
                    00:ac:e7:39:3b:eb:c2:5f:56:25:8c:7d:52:c8:d5:
                    84:cf:c6:9e:5a:aa:4e:45:08:47:dc:31:0a:5f:91:
                    ca:c6:80:95:c7:26:cb:4c:ca:1f:15:e2:77:a4:14:
                    f0:e4:45:ee:9b:37:11:ec:6e:00:43:23:f1:43:04:
                    87:dc:6a:e8:e4:a8:27:3d:82:2a:3c:40:fa:d8:1a:
                    1d:d8:66:b2:e1:31:0b:2b:38:fb:95:eb:cf:d2:ea:
                    a6:a5:5d:38:b1:76:b7:9a:ac:0d:b6:eb:6e:82:69:
                    9f:08:49:3d:ef:94:86:22:4e:91:51:94:5f:46:8f:
                    ed:bf:e8:f8:65:51:61:61:27
                Exponent: 65537 (0x10001)
        X509v3 extensions:
            X509v3 Basic Constraints: 
                CA:FALSE
            Netscape Comment: 
                OpenSSL Generated Certificate
            X509v3 Subject Key Identifier: 
                C0:D2:A2:BF:27:7C:C0:70:B1:35:33:84:E6:78:15:10:65:1F:2F:8B
            X509v3 Authority Key Identifier: 
                keyid:86:5F:24:FE:FC:B0:73:4C:3B:4E:81:DD:01:E2:35:F0:B5:08:3F:80

    Signature Algorithm: sha256WithRSAEncryption
         4b:af:be:54:2b:a7:27:39:23:50:02:10:30:df:2c:f0:36:d4:
         fa:85:33:aa:15:59:8f:fd:3d:60:31:a9:db:79:6a:a3:d3:be:
         33:50:3a:24:14:59:92:b8:b2:52:8b:48:ac:84:14:31:ea:b4:
         37:81:74:94:2a:5e:3d:fa:cf:d7:c4:e8:68:22:48:d5:a9:da:
         ac:31:7f:47:dc:3e:37:75:ca:ac:6b:44:d0:ef:58:4a:d6:1a:
         30:6d:db:55:e4:22:a5:cb:b3:47:4e:e3:3f:76:0c:22:1e:b2:
         30:36:3b:41:5e:15:21:27:14:bb:33:cf:6d:41:47:4a:a8:50:
         51:c5
-----BEGIN CERTIFICATE-----
MIICsjCCAhugAwIBAgIBAjANBgkqhkiG9w0BAQsFADBnMQswCQYDVQQGEwJjbjEL
MAkGA1UECAwCanMxCzAJBgNVBAcMAnpqMQwwCgYDVQQKDAN1anMxDDAKBgNVBAsM
A2pzajELMAkGA1UEAwwCQ0ExFTATBgkqhkiG9w0BCQEWBjEyMzQ1NjAeFw0xODA1
MTcwOTE0NTdaFw0xOTA1MTcwOTE0NTdaMFoxCzAJBgNVBAYTAmNuMQswCQYDVQQI
DAJqczEMMAoGA1UECgwDdWpzMQwwCgYDVQQLDANqc2oxCzAJBgNVBAMMAnFjMRUw
EwYJKoZIhvcNAQkBFgYxMjM0NTYwgZ8wDQYJKoZIhvcNAQEBBQADgY0AMIGJAoGB
AKznOTvrwl9WJYx9UsjVhM/GnlqqTkUIR9wxCl+RysaAlccmy0zKHxXid6QU8ORF
7ps3EexuAEMj8UMEh9xq6OSoJz2CKjxA+tgaHdhmsuExCys4+5Xrz9LqpqVdOLF2
t5qsDbbrboJpnwhJPe+UhiJOkVGUX0aP7b/o+GVRYWEnAgMBAAGjezB5MAkGA1Ud
EwQCMAAwLAYJYIZIAYb4QgENBB8WHU9wZW5TU0wgR2VuZXJhdGVkIENlcnRpZmlj
YXRlMB0GA1UdDgQWBBTA0qK/J3zAcLE1M4TmeBUQZR8vizAfBgNVHSMEGDAWgBSG
XyT+/LBzTDtOgd0B4jXwtQg/gDANBgkqhkiG9w0BAQsFAAOBgQBLr75UK6cnOSNQ
AhAw3yzwNtT6hTOqFVmP/T1gManbeWqj074zUDokFFmSuLJSi0ishBQx6rQ3gXSU
Kl49+s/XxOhoIkjVqdqsMX9H3D43dcqsa0TQ71hK1howbdtV5CKly7NHTuM/dgwi
HrIwNjtBXhUhJxS7M89tQUdKqFBRxQ==
-----END CERTIFICATE-----
